target datalayout = "e-m:e-p270:32:32-p271:32:32-p272:64:64-i64:64-i128:128-f80:128-n8:16:32:64-S128"
target triple = "x86_64-pc-linux-gnu"

%struct.psa_key_slot_t = type { %struct.psa_key_attributes_s, i32, i8, %union.anon, %struct.key_data }
%struct.psa_key_attributes_s = type { i16, i16, i32, %struct.psa_key_policy_s, i32 }
%struct.psa_key_policy_s = type { i32, i32, i32 }
%union.anon = type { %struct.anon.0 }
%struct.anon.0 = type { i64 }
%struct.key_data = type { ptr, i64 }
%struct.psa_hash_operation_s = type { i32, %union.psa_driver_hash_context_t }
%union.psa_driver_hash_context_t = type { %struct.mbedtls_psa_hash_operation_t }
%struct.mbedtls_psa_hash_operation_t = type { i32, %union.anon.1 }
%union.anon.1 = type { %struct.mbedtls_sha512_context }
%struct.mbedtls_sha512_context = type { [2 x i64], [8 x i64], [128 x i8], i32 }
%struct.psa_mac_operation_s = type { i32, i8, i8, %union.psa_driver_mac_context_t }
%union.psa_driver_mac_context_t = type { %struct.mbedtls_psa_mac_operation_t }
%struct.mbedtls_psa_mac_operation_t = type { i32, %union.anon.2 }
%union.anon.2 = type { %struct.mbedtls_psa_hmac_operation_t }
%struct.mbedtls_psa_hmac_operation_t = type { i32, %struct.psa_hash_operation_s, [144 x i8] }

; Function Attrs: inlinehint nounwind uwtable
define internal i32 @psa_driver_wrapper_mac_abort(ptr noundef %0) #6 {
  %2 = alloca i32, align 4
  %3 = alloca ptr, align 8
  store ptr %0, ptr %3, align 8, !tbaa !75
  %4 = load ptr, ptr %3, align 8, !tbaa !75
  %5 = getelementptr inbounds nuw %struct.psa_mac_operation_s, ptr %4, i32 0, i32 0
  %6 = load i32, ptr %5, align 8, !tbaa !77
  switch i32 %6, label %11 [
    i32 1, label %7
  ]

7:                                                ; preds = %1
  %8 = load ptr, ptr %3, align 8, !tbaa !75
  %9 = getelementptr inbounds nuw %struct.psa_mac_operation_s, ptr %8, i32 0, i32 3
  %10 = call i32 @mbedtls_psa_mac_abort(ptr noundef %9)
  store i32 %10, ptr %2, align 4
  br label %12

11:                                               ; preds = %1
  store i32 -135, ptr %2, align 4
  br label %12

12:                                               ; preds = %11, %7
  %13 = load i32, ptr %2, align 4
  ret i32 %13
}

; Function Attrs: inlinehint nounwind uwtable
define internal i32 @psa_get_key_lifetime(ptr noundef %0) #6 {
  %2 = alloca ptr, align 8
  store ptr %0, ptr %2, align 8, !tbaa !30
  %3 = load ptr, ptr %2, align 8, !tbaa !30
  %4 = getelementptr inbounds nuw %struct.psa_key_attributes_s, ptr %3, i32 0, i32 2
  %5 = load i32, ptr %4, align 4, !tbaa !57
  ret i32 %5
}

; Function Attrs: nounwind uwtable
define hidden i32 @psa_mac_abort(ptr noundef %0) #0 {
  %2 = alloca i32, align 4
  %3 = alloca ptr, align 8
  %4 = alloca i32, align 4
  store ptr %0, ptr %3, align 8, !tbaa !75
  %5 = load ptr, ptr %3, align 8, !tbaa !75
  %6 = getelementptr inbounds nuw %struct.psa_mac_operation_s, ptr %5, i32 0, i32 0
  %7 = load i32, ptr %6, align 8, !tbaa !77
  %8 = icmp eq i32 %7, 0
  br i1 %8, label %9, label %10

9:                                                ; preds = %1
  store i32 0, ptr %2, align 4
  br label %23

10:                                               ; preds = %1
  call void @llvm.lifetime.start.p0(i64 4, ptr %4) #8
  %11 = load ptr, ptr %3, align 8, !tbaa !75
  %12 = call i32 @psa_driver_wrapper_mac_abort(ptr noundef %11)
  store i32 %12, ptr %4, align 4, !tbaa !3
  %13 = load ptr, ptr %3, align 8, !tbaa !75
  %14 = getelementptr inbounds nuw %struct.psa_mac_operation_s, ptr %13, i32 0, i32 1
  store i8 0, ptr %14, align 4, !tbaa !79
  %15 = load ptr, ptr %3, align 8, !tbaa !75
  %16 = getelementptr inbounds nuw %struct.psa_mac_operation_s, ptr %15, i32 0, i32 2
  %17 = load i8, ptr %16, align 1
  %18 = and i8 %17, -2
  %19 = or i8 %18, 0
  store i8 %19, ptr %16, align 1
  %20 = load ptr, ptr %3, align 8, !tbaa !75
  %21 = getelementptr inbounds nuw %struct.psa_mac_operation_s, ptr %20, i32 0, i32 0
  store i32 0, ptr %21, align 8, !tbaa !77
  %22 = load i32, ptr %4, align 4, !tbaa !3
  store i32 %22, ptr %2, align 4
  call void @llvm.lifetime.end.p0(i64 4, ptr %4) #8
  br label %23

23:                                               ; preds = %10, %9
  %24 = load i32, ptr %2, align 4
  ret i32 %24
}

; Function Attrs: inlinehint nounwind uwtable
define internal i32 @psa_driver_wrapper_mac_sign_setup(ptr noundef %0, ptr noundef %1, ptr noundef %2, i64 noundef %3, i32 noundef %4) #6 {
  %6 = alloca i32, align 4
  %7 = alloca ptr, align 8
  %8 = alloca ptr, align 8
  %9 = alloca ptr, align 8
  %10 = alloca i64, align 8
  %11 = alloca i32, align 4
  %12 = alloca i32, align 4
  %13 = alloca i32, align 4
  %14 = alloca i32, align 4
  store ptr %0, ptr %7, align 8, !tbaa !75
  store ptr %1, ptr %8, align 8, !tbaa !30
  store ptr %2, ptr %9, align 8, !tbaa !29
  store i64 %3, ptr %10, align 8, !tbaa !20
  store i32 %4, ptr %11, align 4, !tbaa !3
  call void @llvm.lifetime.start.p0(i64 4, ptr %12) #8
  store i32 -151, ptr %12, align 4, !tbaa !3
  call void @llvm.lifetime.start.p0(i64 4, ptr %13) #8
  %15 = load ptr, ptr %8, align 8, !tbaa !30
  %16 = call i32 @psa_get_key_lifetime(ptr noundef %15)
  %17 = lshr i32 %16, 8
  store i32 %17, ptr %13, align 4, !tbaa !3
  %18 = load i32, ptr %13, align 4, !tbaa !3
  switch i32 %18, label %38 [
    i32 0, label %19
  ]

19:                                               ; preds = %5
  %20 = load ptr, ptr %7, align 8, !tbaa !75
  %21 = getelementptr inbounds nuw %struct.psa_mac_operation_s, ptr %20, i32 0, i32 3
  %22 = load ptr, ptr %8, align 8, !tbaa !30
  %23 = load ptr, ptr %9, align 8, !tbaa !29
  %24 = load i64, ptr %10, align 8, !tbaa !20
  %25 = load i32, ptr %11, align 4, !tbaa !3
  %26 = call i32 @mbedtls_psa_mac_sign_setup(ptr noundef %21, ptr noundef %22, ptr noundef %23, i64 noundef %24, i32 noundef %25)
  store i32 %26, ptr %12, align 4, !tbaa !3
  %27 = load i32, ptr %12, align 4, !tbaa !3
  %28 = icmp eq i32 %27, 0
  br i1 %28, label %29, label %32

29:                                               ; preds = %19
  %30 = load ptr, ptr %7, align 8, !tbaa !75
  %31 = getelementptr inbounds nuw %struct.psa_mac_operation_s, ptr %30, i32 0, i32 0
  store i32 1, ptr %31, align 8, !tbaa !77
  br label %32

32:                                               ; preds = %29, %19
  %33 = load i32, ptr %12, align 4, !tbaa !3
  %34 = icmp ne i32 %33, -134
  br i1 %34, label %35, label %37

35:                                               ; preds = %32
  %36 = load i32, ptr %12, align 4, !tbaa !3
  store i32 %36, ptr %6, align 4
  store i32 1, ptr %14, align 4
  br label %39

37:                                               ; preds = %32
  store i32 -134, ptr %6, align 4
  store i32 1, ptr %14, align 4
  br label %39

38:                                               ; preds = %5
  store i32 -135, ptr %6, align 4
  store i32 1, ptr %14, align 4
  br label %39

39:                                               ; preds = %38, %37, %35
  call void @llvm.lifetime.end.p0(i64 4, ptr %13) #8
  call void @llvm.lifetime.end.p0(i64 4, ptr %12) #8
  %40 = load i32, ptr %6, align 4
  ret i32 %40
}

; Function Attrs: nounwind uwtable
define internal i32 @psa_mac_setup(ptr noundef %0, i32 noundef %1, i32 noundef %2, i32 noundef %3) #0 {
  %5 = alloca ptr, align 8
  %6 = alloca i32, align 4
  %7 = alloca i32, align 4
  %8 = alloca i32, align 4
  %9 = alloca i32, align 4
  %10 = alloca i32, align 4
  %11 = alloca ptr, align 8
  store ptr %0, ptr %5, align 8, !tbaa !75
  store i32 %1, ptr %6, align 4, !tbaa !3
  store i32 %2, ptr %7, align 4, !tbaa !3
  store i32 %3, ptr %8, align 4, !tbaa !3
  call void @llvm.lifetime.start.p0(i64 4, ptr %9) #8
  store i32 -151, ptr %9, align 4, !tbaa !3
  call void @llvm.lifetime.start.p0(i64 4, ptr %10) #8
  store i32 -151, ptr %10, align 4, !tbaa !3
  call void @llvm.lifetime.start.p0(i64 8, ptr %11) #8
  store ptr null, ptr %11, align 8, !tbaa !21
  %12 = load ptr, ptr %5, align 8, !tbaa !75
  %13 = getelementptr inbounds nuw %struct.psa_mac_operation_s, ptr %12, i32 0, i32 0
  %14 = load i32, ptr %13, align 8, !tbaa !77
  %15 = icmp ne i32 %14, 0
  br i1 %15, label %16, label %17

16:                                               ; preds = %4
  store i32 -137, ptr %9, align 4, !tbaa !3
  br label %77

17:                                               ; preds = %4
  %18 = load i32, ptr %6, align 4, !tbaa !3
  %19 = load i32, ptr %8, align 4, !tbaa !3
  %20 = icmp ne i32 %19, 0
  %21 = select i1 %20, i32 1024, i32 2048
  %22 = load i32, ptr %7, align 4, !tbaa !3
  %23 = call i32 @psa_get_and_lock_key_slot_with_policy(i32 noundef %18, ptr noundef %11, i32 noundef %21, i32 noundef %22)
  store i32 %23, ptr %9, align 4, !tbaa !3
  %24 = load i32, ptr %9, align 4, !tbaa !3
  %25 = icmp ne i32 %24, 0
  br i1 %25, label %26, label %27

26:                                               ; preds = %17
  br label %77

27:                                               ; preds = %17
  %28 = load i32, ptr %7, align 4, !tbaa !3
  %29 = load ptr, ptr %11, align 8, !tbaa !21
  %30 = getelementptr inbounds nuw %struct.psa_key_slot_t, ptr %29, i32 0, i32 0
  %31 = load ptr, ptr %5, align 8, !tbaa !75
  %32 = getelementptr inbounds nuw %struct.psa_mac_operation_s, ptr %31, i32 0, i32 1
  %33 = call i32 @psa_mac_finalize_alg_and_key_validation(i32 noundef %28, ptr noundef %30, ptr noundef %32)
  store i32 %33, ptr %9, align 4, !tbaa !3
  %34 = load i32, ptr %9, align 4, !tbaa !3
  %35 = icmp ne i32 %34, 0
  br i1 %35, label %36, label %37

36:                                               ; preds = %27
  br label %77

37:                                               ; preds = %27
  %38 = load i32, ptr %8, align 4, !tbaa !3
  %39 = load ptr, ptr %5, align 8, !tbaa !75
  %40 = getelementptr inbounds nuw %struct.psa_mac_operation_s, ptr %39, i32 0, i32 2
  %41 = trunc i32 %38 to i8
  %42 = load i8, ptr %40, align 1
  %43 = and i8 %41, 1
  %44 = and i8 %42, -2
  %45 = or i8 %44, %43
  store i8 %45, ptr %40, align 1
  %46 = load i32, ptr %8, align 4, !tbaa !3
  %47 = icmp ne i32 %46, 0
  br i1 %47, label %48, label %62

48:                                               ; preds = %37
  %49 = load ptr, ptr %5, align 8, !tbaa !75
  %50 = load ptr, ptr %11, align 8, !tbaa !21
  %51 = getelementptr inbounds nuw %struct.psa_key_slot_t, ptr %50, i32 0, i32 0
  %52 = load ptr, ptr %11, align 8, !tbaa !21
  %53 = getelementptr inbounds nuw %struct.psa_key_slot_t, ptr %52, i32 0, i32 4
  %54 = getelementptr inbounds nuw %struct.key_data, ptr %53, i32 0, i32 0
  %55 = load ptr, ptr %54, align 8, !tbaa !22
  %56 = load ptr, ptr %11, align 8, !tbaa !21
  %57 = getelementptr inbounds nuw %struct.psa_key_slot_t, ptr %56, i32 0, i32 4
  %58 = getelementptr inbounds nuw %struct.key_data, ptr %57, i32 0, i32 1
  %59 = load i64, ptr %58, align 8, !tbaa !28
  %60 = load i32, ptr %7, align 4, !tbaa !3
  %61 = call i32 @psa_driver_wrapper_mac_sign_setup(ptr noundef %49, ptr noundef %51, ptr noundef %55, i64 noundef %59, i32 noundef %60)
  store i32 %61, ptr %9, align 4, !tbaa !3
  br label %76

62:                                               ; preds = %37
  %63 = load ptr, ptr %5, align 8, !tbaa !75
  %64 = load ptr, ptr %11, align 8, !tbaa !21
  %65 = getelementptr inbounds nuw %struct.psa_key_slot_t, ptr %64, i32 0, i32 0
  %66 = load ptr, ptr %11, align 8, !tbaa !21
  %67 = getelementptr inbounds nuw %struct.psa_key_slot_t, ptr %66, i32 0, i32 4
  %68 = getelementptr inbounds nuw %struct.key_data, ptr %67, i32 0, i32 0
  %69 = load ptr, ptr %68, align 8, !tbaa !22
  %70 = load ptr, ptr %11, align 8, !tbaa !21
  %71 = getelementptr inbounds nuw %struct.psa_key_slot_t, ptr %70, i32 0, i32 4
  %72 = getelementptr inbounds nuw %struct.key_data, ptr %71, i32 0, i32 1
  %73 = load i64, ptr %72, align 8, !tbaa !28
  %74 = load i32, ptr %7, align 4, !tbaa !3
  %75 = call i32 @psa_driver_wrapper_mac_verify_setup(ptr noundef %63, ptr noundef %65, ptr noundef %69, i64 noundef %73, i32 noundef %74)
  store i32 %75, ptr %9, align 4, !tbaa !3
  br label %76

76:                                               ; preds = %62, %48
  br label %77

77:                                               ; preds = %76, %36, %26, %16
  %78 = load i32, ptr %9, align 4, !tbaa !3
  %79 = icmp ne i32 %78, 0
  br i1 %79, label %80, label %83

80:                                               ; preds = %77
  %81 = load ptr, ptr %5, align 8, !tbaa !75
  %82 = call i32 @psa_mac_abort(ptr noundef %81)
  br label %83

83:                                               ; preds = %80, %77
  %84 = load ptr, ptr %11, align 8, !tbaa !21
  %85 = call i32 @psa_unregister_read_under_mutex(ptr noundef %84)
  store i32 %85, ptr %10, align 4, !tbaa !3
  %86 = load i32, ptr %9, align 4, !tbaa !3
  %87 = icmp eq i32 %86, 0
  br i1 %87, label %88, label %90

88:                                               ; preds = %83
  %89 = load i32, ptr %10, align 4, !tbaa !3
  br label %92

90:                                               ; preds = %83
  %91 = load i32, ptr %9, align 4, !tbaa !3
  br label %92

92:                                               ; preds = %90, %88
  %93 = phi i32 [ %89, %88 ], [ %91, %90 ]
  call void @llvm.lifetime.end.p0(i64 8, ptr %11) #8
  call void @llvm.lifetime.end.p0(i64 4, ptr %10) #8
  call void @llvm.lifetime.end.p0(i64 4, ptr %9) #8
  ret i32 %93
}