; Function Attrs: nounwind uwtable
define internal fastcc i32 @psa_mac_setup(ptr noundef %0, i32 noundef %1, i32 noundef %2, i32 noundef range(i32 0, 2) %3) unnamed_addr #7 {
  %5 = alloca ptr, align 8
  call void @llvm.lifetime.start.p0(i64 8, ptr nonnull %5) #22
  store ptr null, ptr %5, align 8, !tbaa !29
  %6 = load i32, ptr %0, align 8, !tbaa !55
  %.not = icmp eq i32 %6, 0
  br i1 %.not, label %7, label %psa_driver_wrapper_mac_sign_setup.exit.thread

7:                                                ; preds = %4
  %.not21 = icmp eq i32 %3, 0
  %8 = select i1 %.not21, i32 2048, i32 1024
  %9 = call fastcc i32 @psa_get_and_lock_key_slot_with_policy(i32 noundef %1, ptr noundef %5, i32 noundef %8, i32 noundef %2)
  %.not22 = icmp eq i32 %9, 0
  br i1 %.not22, label %10, label %psa_driver_wrapper_mac_sign_setup.exit.threadthread-pre-split

10:                                               ; preds = %7
  %11 = load ptr, ptr %5, align 8, !tbaa !29
  %12 = getelementptr inbounds nuw i8, ptr %0, i64 4
  %.val = load i16, ptr %11, align 4, !tbaa !24
  %13 = call fastcc i32 @psa_mac_finalize_alg_and_key_validation(i32 noundef %2, i16 %.val, ptr noundef nonnull %12)
  %.not23 = icmp eq i32 %13, 0
  br i1 %.not23, label %14, label %psa_driver_wrapper_mac_sign_setup.exit.threadthread-pre-split

14:                                               ; preds = %10
  %15 = getelementptr inbounds nuw i8, ptr %0, i64 5
  %16 = trunc nuw nsw i32 %3 to i8
  %17 = load i8, ptr %15, align 1
  %18 = and i8 %17, -2
  %19 = or disjoint i8 %18, %16
  store i8 %19, ptr %15, align 1
  br i1 %.not21, label %29, label %20

20:                                               ; preds = %14
  %21 = getelementptr i8, ptr %11, i64 4
  %.val.i = load i32, ptr %21, align 4, !tbaa !39
  %cond.i = icmp ult i32 %.val.i, 256
  br i1 %cond.i, label %22, label %psa_driver_wrapper_mac_sign_setup.exit.threadthread-pre-split

22:                                               ; preds = %20
  %23 = getelementptr inbounds nuw i8, ptr %11, i64 48
  %24 = load i64, ptr %23, align 8, !tbaa !23
  %25 = getelementptr inbounds nuw i8, ptr %11, i64 40
  %26 = load ptr, ptr %25, align 8, !tbaa !16
  %27 = getelementptr inbounds nuw i8, ptr %0, i64 8
  %28 = call i32 @mbedtls_psa_mac_sign_setup(ptr noundef nonnull %27, ptr noundef nonnull %11, ptr noundef %26, i64 noundef %24, i32 noundef %2) #22
  switch i32 %28, label %psa_driver_wrapper_mac_sign_setup.exit [
    i32 0, label %psa_driver_wrapper_mac_sign_setup.exit.thread33
    i32 -134, label %psa_driver_wrapper_mac_sign_setup.exit.threadthread-pre-split
  ]

psa_driver_wrapper_mac_sign_setup.exit.thread33:  ; preds = %22
  store i32 1, ptr %0, align 8, !tbaa !55
  br label %45

29:                                               ; preds = %14
  %30 = getelementptr inbounds nuw i8, ptr %11, i64 40
  %31 = load ptr, ptr %30, align 8, !tbaa !16
  %32 = getelementptr inbounds nuw i8, ptr %11, i64 48
  %33 = load i64, ptr %32, align 8, !tbaa !23
  %34 = call fastcc i32 @psa_driver_wrapper_mac_verify_setup(ptr noundef nonnull %0, ptr noundef nonnull %11, ptr noundef %31, i64 noundef %33, i32 noundef %2)
  br label %psa_driver_wrapper_mac_sign_setup.exit

psa_driver_wrapper_mac_sign_setup.exit:           ; preds = %22, %29
  %.0 = phi i32 [ %34, %29 ], [ %28, %22 ]
  %.not24 = icmp eq i32 %.0, 0
  br i1 %.not24, label %45, label %psa_driver_wrapper_mac_sign_setup.exit.threadthread-pre-split

psa_driver_wrapper_mac_sign_setup.exit.threadthread-pre-split: ; preds = %psa_driver_wrapper_mac_sign_setup.exit, %7, %10, %20, %22
  %.029.ph = phi i32 [ %28, %22 ], [ %9, %7 ], [ %13, %10 ], [ -135, %20 ], [ %.0, %psa_driver_wrapper_mac_sign_setup.exit ]
  %.pr = load i32, ptr %0, align 8, !tbaa !55
  br label %psa_driver_wrapper_mac_sign_setup.exit.thread

psa_driver_wrapper_mac_sign_setup.exit.thread:    ; preds = %psa_driver_wrapper_mac_sign_setup.exit.threadthread-pre-split, %4
  %35 = phi i32 [ %.pr, %psa_driver_wrapper_mac_sign_setup.exit.threadthread-pre-split ], [ %6, %4 ]
  %.029 = phi i32 [ %.029.ph, %psa_driver_wrapper_mac_sign_setup.exit.threadthread-pre-split ], [ -137, %4 ]
  switch i32 %35, label %psa_driver_wrapper_mac_abort.exit.i [
    i32 0, label %psa_mac_abort.exit
    i32 1, label %36
  ]

36:                                               ; preds = %psa_driver_wrapper_mac_sign_setup.exit.thread
  %37 = getelementptr inbounds nuw i8, ptr %0, i64 8
  %38 = call i32 @mbedtls_psa_mac_abort(ptr noundef nonnull %37) #22
  br label %psa_driver_wrapper_mac_abort.exit.i

psa_driver_wrapper_mac_abort.exit.i:              ; preds = %36, %psa_driver_wrapper_mac_sign_setup.exit.thread
  %39 = getelementptr inbounds nuw i8, ptr %0, i64 4
  store i8 0, ptr %39, align 4, !tbaa !57
  %40 = getelementptr inbounds nuw i8, ptr %0, i64 5
  %41 = load i8, ptr %40, align 1
  %42 = and i8 %41, -2
  store i8 %42, ptr %40, align 1
  store i32 0, ptr %0, align 8, !tbaa !55
  br label %psa_mac_abort.exit

psa_mac_abort.exit:                               ; preds = %psa_driver_wrapper_mac_abort.exit.i, %psa_driver_wrapper_mac_sign_setup.exit.thread
  %43 = load ptr, ptr %5, align 8, !tbaa !29
  %44 = call i32 @psa_unregister_read_under_mutex(ptr noundef %43) #22
  br label %48

45:                                               ; preds = %psa_driver_wrapper_mac_sign_setup.exit, %psa_driver_wrapper_mac_sign_setup.exit.thread33
  %46 = load ptr, ptr %5, align 8, !tbaa !29
  %47 = call i32 @psa_unregister_read_under_mutex(ptr noundef %46) #22
  br label %48

48:                                               ; preds = %psa_mac_abort.exit, %45
  %49 = phi i32 [ %47, %45 ], [ %.029, %psa_mac_abort.exit ]
  call void @llvm.lifetime.end.p0(i64 8, ptr nonnull %5) #22
  ret i32 %49
}